; Function Attrs: mustprogress nounwind uwtable
define dso_local void @_ZN9Stockfish6Thread24wait_for_search_finishedEv(ptr noundef nonnull align 8 dereferenceable(136) %0) local_unnamed_addr #3 align 2 {
  %2 = alloca %"class.std::unique_lock", align 8
  %3 = getelementptr inbounds i8, ptr %0, i64 16
  store ptr %3, ptr %2, align 8
  %4 = getelementptr inbounds i8, ptr %2, i64 8
  %5 = tail call noundef i32 @pthread_mutex_lock(ptr noundef nonnull %3) #14
  %.not.i.i.i = icmp eq i32 %5, 0
  br i1 %.not.i.i.i, label %_ZNSt11unique_lockISt5mutexEC2ERS0_.exit, label %6

6:                                                ; preds = %1
  tail call void @_ZSt20__throw_system_errori(i32 noundef %5) #15
  unreachable

_ZNSt11unique_lockISt5mutexEC2ERS0_.exit:         ; preds = %1
  store i8 1, ptr %4, align 8
  %7 = getelementptr inbounds i8, ptr %0, i64 56
  %8 = getelementptr inbounds i8, ptr %0, i64 121
  %.val.val2.i = load i8, ptr %8, align 1
  %9 = and i8 %.val.val2.i, 1
  %.not.i3.i = icmp eq i8 %9, 0
  br i1 %.not.i3.i, label %"_ZNSt18condition_variable4waitIZN9Stockfish6Thread24wait_for_search_finishedEvE3$_0EEvRSt11unique_lockISt5mutexET_.exit.thread", label %.lr.ph.i

.lr.ph.i:                                         ; preds = %_ZNSt11unique_lockISt5mutexEC2ERS0_.exit, %.lr.ph.i
  call void @_ZNSt18condition_variable4waitERSt11unique_lockISt5mutexE(ptr noundef nonnull align 8 dereferenceable(48) %7, ptr noundef nonnull align 8 dereferenceable(9) %2) #14
  %.val.val.i = load i8, ptr %8, align 1
  %10 = and i8 %.val.val.i, 1
  %.not.i.i = icmp eq i8 %10, 0
  br i1 %.not.i.i, label %"_ZNSt18condition_variable4waitIZN9Stockfish6Thread24wait_for_search_finishedEvE3$_0EEvRSt11unique_lockISt5mutexET_.exit", label %.lr.ph.i, !llvm.loop !8

"_ZNSt18condition_variable4waitIZN9Stockfish6Thread24wait_for_search_finishedEvE3$_0EEvRSt11unique_lockISt5mutexET_.exit": ; preds = %.lr.ph.i
  %.pre = load i8, ptr %4, align 8
  %11 = and i8 %.pre, 1
  %12 = icmp eq i8 %11, 0
  br i1 %12, label %_ZNSt11unique_lockISt5mutexED2Ev.exit, label %"_ZNSt18condition_variable4waitIZN9Stockfish6Thread24wait_for_search_finishedEvE3$_0EEvRSt11unique_lockISt5mutexET_.exit.thread"

"_ZNSt18condition_variable4waitIZN9Stockfish6Thread24wait_for_search_finishedEvE3$_0EEvRSt11unique_lockISt5mutexET_.exit.thread": ; preds = %_ZNSt11unique_lockISt5mutexEC2ERS0_.exit, %"_ZNSt18condition_variable4waitIZN9Stockfish6Thread24wait_for_search_finishedEvE3$_0EEvRSt11unique_lockISt5mutexET_.exit"
  %13 = load ptr, ptr %2, align 8
  %.not1.i.i = icmp eq ptr %13, null
  br i1 %.not1.i.i, label %_ZNSt11unique_lockISt5mutexED2Ev.exit, label %14

14:                                               ; preds = %"_ZNSt18condition_variable4waitIZN9Stockfish6Thread24wait_for_search_finishedEvE3$_0EEvRSt11unique_lockISt5mutexET_.exit.thread"
  %15 = call noundef i32 @pthread_mutex_unlock(ptr noundef nonnull %13) #14
  br label %_ZNSt11unique_lockISt5mutexED2Ev.exit

_ZNSt11unique_lockISt5mutexED2Ev.exit:            ; preds = %"_ZNSt18condition_variable4waitIZN9Stockfish6Thread24wait_for_search_finishedEvE3$_0EEvRSt11unique_lockISt5mutexET_.exit", %"_ZNSt18condition_variable4waitIZN9Stockfish6Thread24wait_for_search_finishedEvE3$_0EEvRSt11unique_lockISt5mutexET_.exit.thread", %14
  ret void
}